target datalayout = "e-m:e-p270:32:32-p271:32:32-p272:64:64-i64:64-i128:128-f80:128-n8:16:32:64-S128"
target triple = "x86_64-unknown-linux-gnu"

%struct.BlockdevOptions = type { i32, ptr, i8, i32, ptr, i8, i8, i8, i8, i8, i8, i8, i32, %union.anon.11 }
%union.anon.11 = type { %struct.BlockdevOptionsBlkdebug }
%struct.BlockdevOptionsBlkdebug = type { ptr, ptr, i8, i64, i8, i32, i8, i32, i8, i32, i8, i32, i8, i32, i8, ptr, i8, ptr, i8, ptr, i8, ptr }
%struct.BlockdevRefOrNull = type { i32, %union.anon.13 }
%union.anon.13 = type { %struct.BlockdevOptions }

@.str.8 = private unnamed_addr constant [20 x i8] c"visit_is_dealloc(v)\00", align 1
@.str.9 = private unnamed_addr constant [29 x i8] c"qapi/qapi-visit-block-core.c\00", align 1
@.str.223 = private unnamed_addr constant [18 x i8] c"visit_is_input(v)\00", align 1
@.str.224 = private unnamed_addr constant [46 x i8] c"Invalid parameter type for '%s', expected: %s\00", align 1
@.str.225 = private unnamed_addr constant [5 x i8] c"null\00", align 1
@__PRETTY_FUNCTION__.visit_type_BlockdevRefOrNull = private unnamed_addr constant [92 x i8] c"_Bool visit_type_BlockdevRefOrNull(Visitor *, const char *, BlockdevRefOrNull **, Error **)\00", align 1
@__func__.visit_type_BlockdevRefOrNull = private unnamed_addr constant [29 x i8] c"visit_type_BlockdevRefOrNull\00", align 1
@.str.384 = private unnamed_addr constant [18 x i8] c"BlockdevRefOrNull\00", align 1

; Function Attrs: nounwind sspstrong uwtable
define dso_local zeroext i1 @visit_type_BlockdevRefOrNull(ptr noundef %v, ptr noundef %name, ptr noundef %obj, ptr noundef %errp) #0 {
entry:
  %retval = alloca i1, align 1
  %v.addr = alloca ptr, align 8
  %name.addr = alloca ptr, align 8
  %obj.addr = alloca ptr, align 8
  %errp.addr = alloca ptr, align 8
  %ok = alloca i8, align 1
  store ptr %v, ptr %v.addr, align 8
  store ptr %name, ptr %name.addr, align 8
  store ptr %obj, ptr %obj.addr, align 8
  store ptr %errp, ptr %errp.addr, align 8
  store i8 0, ptr %ok, align 1
  %0 = load ptr, ptr %v.addr, align 8
  %1 = load ptr, ptr %name.addr, align 8
  %2 = load ptr, ptr %obj.addr, align 8
  %3 = load ptr, ptr %errp.addr, align 8
  %call = call zeroext i1 @visit_start_alternate(ptr noundef %0, ptr noundef %1, ptr noundef %2, i64 noundef 192, ptr noundef %3)
  br i1 %call, label %if.end, label %if.then

if.then:                                          ; preds = %entry
  store i1 false, ptr %retval, align 1
  br label %return

if.end:                                           ; preds = %entry
  %4 = load ptr, ptr %obj.addr, align 8
  %5 = load ptr, ptr %4, align 8
  %tobool = icmp ne ptr %5, null
  br i1 %tobool, label %if.end5, label %if.then1

if.then1:                                         ; preds = %if.end
  %6 = load ptr, ptr %v.addr, align 8
  %call2 = call zeroext i1 @visit_is_dealloc(ptr noundef %6)
  br i1 %call2, label %if.then3, label %if.else

if.then3:                                         ; preds = %if.then1
  br label %if.end4

if.else:                                          ; preds = %if.then1
  call void @__assert_fail(ptr noundef @.str.8, ptr noundef @.str.9, i32 noundef 7657, ptr noundef @__PRETTY_FUNCTION__.visit_type_BlockdevRefOrNull) #3
  unreachable

if.end4:                                          ; preds = %if.then3
  store i8 1, ptr %ok, align 1
  br label %out_obj

if.end5:                                          ; preds = %if.end
  %7 = load ptr, ptr %obj.addr, align 8
  %8 = load ptr, ptr %7, align 8
  %type = getelementptr inbounds %struct.BlockdevRefOrNull, ptr %8, i32 0, i32 0
  %9 = load i32, ptr %type, align 8
  switch i32 %9, label %sw.default [
    i32 4, label %sw.bb
    i32 3, label %sw.bb13
    i32 1, label %sw.bb17
    i32 0, label %sw.bb21
  ]

sw.bb:                                            ; preds = %if.end5
  %10 = load ptr, ptr %v.addr, align 8
  %11 = load ptr, ptr %name.addr, align 8
  %12 = load ptr, ptr %errp.addr, align 8
  %call6 = call zeroext i1 @visit_start_struct(ptr noundef %10, ptr noundef %11, ptr noundef null, i64 noundef 0, ptr noundef %12)
  br i1 %call6, label %if.end8, label %if.then7

if.then7:                                         ; preds = %sw.bb
  br label %sw.epilog

if.end8:                                          ; preds = %sw.bb
  %13 = load ptr, ptr %v.addr, align 8
  %14 = load ptr, ptr %obj.addr, align 8
  %15 = load ptr, ptr %14, align 8
  %u = getelementptr inbounds %struct.BlockdevRefOrNull, ptr %15, i32 0, i32 1
  %16 = load ptr, ptr %errp.addr, align 8
  %call9 = call zeroext i1 @visit_type_BlockdevOptions_members(ptr noundef %13, ptr noundef %u, ptr noundef %16)
  br i1 %call9, label %if.then10, label %if.end12

if.then10:                                        ; preds = %if.end8
  %17 = load ptr, ptr %v.addr, align 8
  %18 = load ptr, ptr %errp.addr, align 8
  %call11 = call zeroext i1 @visit_check_struct(ptr noundef %17, ptr noundef %18)
  %frombool = zext i1 %call11 to i8
  store i8 %frombool, ptr %ok, align 1
  br label %if.end12

if.end12:                                         ; preds = %if.then10, %if.end8
  %19 = load ptr, ptr %v.addr, align 8
  call void @visit_end_struct(ptr noundef %19, ptr noundef null)
  br label %sw.epilog

sw.bb13:                                          ; preds = %if.end5
  %20 = load ptr, ptr %v.addr, align 8
  %21 = load ptr, ptr %name.addr, align 8
  %22 = load ptr, ptr %obj.addr, align 8
  %23 = load ptr, ptr %22, align 8
  %u14 = getelementptr inbounds %struct.BlockdevRefOrNull, ptr %23, i32 0, i32 1
  %24 = load ptr, ptr %errp.addr, align 8
  %call15 = call zeroext i1 @visit_type_str(ptr noundef %20, ptr noundef %21, ptr noundef %u14, ptr noundef %24)
  %frombool16 = zext i1 %call15 to i8
  store i8 %frombool16, ptr %ok, align 1
  br label %sw.epilog

sw.bb17:                                          ; preds = %if.end5
  %25 = load ptr, ptr %v.addr, align 8
  %26 = load ptr, ptr %name.addr, align 8
  %27 = load ptr, ptr %obj.addr, align 8
  %28 = load ptr, ptr %27, align 8
  %u18 = getelementptr inbounds %struct.BlockdevRefOrNull, ptr %28, i32 0, i32 1
  %29 = load ptr, ptr %errp.addr, align 8
  %call19 = call zeroext i1 @visit_type_null(ptr noundef %25, ptr noundef %26, ptr noundef %u18, ptr noundef %29)
  %frombool20 = zext i1 %call19 to i8
  store i8 %frombool20, ptr %ok, align 1
  br label %sw.epilog

sw.bb21:                                          ; preds = %if.end5
  call void @abort() #3
  unreachable

sw.default:                                       ; preds = %if.end5
  %30 = load ptr, ptr %v.addr, align 8
  %call22 = call zeroext i1 @visit_is_input(ptr noundef %30)
  br i1 %call22, label %if.then23, label %if.else24

if.then23:                                        ; preds = %sw.default
  br label %if.end25

if.else24:                                        ; preds = %sw.default
  call void @__assert_fail(ptr noundef @.str.223, ptr noundef @.str.9, i32 noundef 7680, ptr noundef @__PRETTY_FUNCTION__.visit_type_BlockdevRefOrNull) #3
  unreachable

if.end25:                                         ; preds = %if.then23
  %31 = load ptr, ptr %errp.addr, align 8
  %32 = load ptr, ptr %name.addr, align 8
  %tobool26 = icmp ne ptr %32, null
  br i1 %tobool26, label %cond.true, label %cond.false

cond.true:                                        ; preds = %if.end25
  %33 = load ptr, ptr %name.addr, align 8
  br label %cond.end

cond.false:                                       ; preds = %if.end25
  br label %cond.end

cond.end:                                         ; preds = %cond.false, %cond.true
  %cond = phi ptr [ %33, %cond.true ], [ @.str.225, %cond.false ]
  call void (ptr, ptr, i32, ptr, ptr, ...) @error_setg_internal(ptr noundef %31, ptr noundef @.str.9, i32 noundef 7682, ptr noundef @__func__.visit_type_BlockdevRefOrNull, ptr noundef @.str.224, ptr noundef %cond, ptr noundef @.str.384)
  %34 = load ptr, ptr %obj.addr, align 8
  %35 = load ptr, ptr %34, align 8
  call void @g_free(ptr noundef %35)
  %36 = load ptr, ptr %obj.addr, align 8
  store ptr null, ptr %36, align 8
  br label %sw.epilog

sw.epilog:                                        ; preds = %cond.end, %sw.bb17, %sw.bb13, %if.end12, %if.then7
  br label %out_obj

out_obj:                                          ; preds = %sw.epilog, %if.end4
  %37 = load ptr, ptr %v.addr, align 8
  %38 = load ptr, ptr %obj.addr, align 8
  call void @visit_end_alternate(ptr noundef %37, ptr noundef %38)
  %39 = load i8, ptr %ok, align 1
  %tobool27 = trunc i8 %39 to i1
  br i1 %tobool27, label %if.end30, label %land.lhs.true

land.lhs.true:                                    ; preds = %out_obj
  %40 = load ptr, ptr %v.addr, align 8
  %call28 = call zeroext i1 @visit_is_input(ptr noundef %40)
  br i1 %call28, label %if.then29, label %if.end30

if.then29:                                        ; preds = %land.lhs.true
  %41 = load ptr, ptr %obj.addr, align 8
  %42 = load ptr, ptr %41, align 8
  call void @qapi_free_BlockdevRefOrNull(ptr noundef %42)
  %43 = load ptr, ptr %obj.addr, align 8
  store ptr null, ptr %43, align 8
  br label %if.end30

if.end30:                                         ; preds = %if.then29, %land.lhs.true, %out_obj
  %44 = load i8, ptr %ok, align 1
  %tobool31 = trunc i8 %44 to i1
  store i1 %tobool31, ptr %retval, align 1
  br label %return

return:                                           ; preds = %if.end30, %if.then
  %45 = load i1, ptr %retval, align 1
  ret i1 %45
}