; Function Attrs: nounwind sspstrong uwtable
define dso_local noundef zeroext i1 @visit_type_BlockdevRefOrNull(ptr noundef %v, ptr noundef %name, ptr noundef %obj, ptr noundef %errp) local_unnamed_addr #0 {
entry:
  %call = tail call zeroext i1 @visit_start_alternate(ptr noundef %v, ptr noundef %name, ptr noundef %obj, i64 noundef 192, ptr noundef %errp) #5
  br i1 %call, label %if.end, label %return

if.end:                                           ; preds = %entry
  %0 = load ptr, ptr %obj, align 8
  %tobool.not = icmp eq ptr %0, null
  br i1 %tobool.not, label %if.then1, label %if.end5

if.then1:                                         ; preds = %if.end
  %call2 = tail call zeroext i1 @visit_is_dealloc(ptr noundef %v) #5
  br i1 %call2, label %out_obj.thread35, label %if.else

out_obj.thread35:                                 ; preds = %if.then1
  tail call void @visit_end_alternate(ptr noundef %v, ptr noundef nonnull %obj) #5
  br label %return

if.else:                                          ; preds = %if.then1
  tail call void @__assert_fail(ptr noundef nonnull @.str.8, ptr noundef nonnull @.str.9, i32 noundef 7657, ptr noundef nonnull @__PRETTY_FUNCTION__.visit_type_BlockdevRefOrNull) #6
  unreachable

if.end5:                                          ; preds = %if.end
  %1 = load i32, ptr %0, align 8
  switch i32 %1, label %sw.default [
    i32 4, label %sw.bb
    i32 3, label %sw.bb13
    i32 1, label %sw.bb17
    i32 0, label %sw.bb21
  ]

sw.bb:                                            ; preds = %if.end5
  %call6 = tail call zeroext i1 @visit_start_struct(ptr noundef %v, ptr noundef %name, ptr noundef null, i64 noundef 0, ptr noundef %errp) #5
  br i1 %call6, label %if.end8, label %land.lhs.true.sink.split

if.end8:                                          ; preds = %sw.bb
  %2 = load ptr, ptr %obj, align 8
  %u = getelementptr inbounds nuw i8, ptr %2, i64 8
  %call9 = tail call zeroext i1 @visit_type_BlockdevOptions_members(ptr noundef %v, ptr noundef nonnull %u, ptr noundef %errp)
  br i1 %call9, label %if.then10, label %land.lhs.true.critedge

if.then10:                                        ; preds = %if.end8
  %call11 = tail call zeroext i1 @visit_check_struct(ptr noundef %v, ptr noundef %errp) #5
  tail call void @visit_end_struct(ptr noundef %v, ptr noundef null) #5
  tail call void @visit_end_alternate(ptr noundef %v, ptr noundef nonnull %obj) #5
  br i1 %call11, label %return, label %land.lhs.true

sw.bb13:                                          ; preds = %if.end5
  %u14 = getelementptr inbounds nuw i8, ptr %0, i64 8
  %call15 = tail call zeroext i1 @visit_type_str(ptr noundef %v, ptr noundef %name, ptr noundef nonnull %u14, ptr noundef %errp) #5
  tail call void @visit_end_alternate(ptr noundef %v, ptr noundef nonnull %obj) #5
  br i1 %call15, label %return, label %land.lhs.true

sw.bb17:                                          ; preds = %if.end5
  %u18 = getelementptr inbounds nuw i8, ptr %0, i64 8
  %call19 = tail call zeroext i1 @visit_type_null(ptr noundef %v, ptr noundef %name, ptr noundef nonnull %u18, ptr noundef %errp) #5
  tail call void @visit_end_alternate(ptr noundef %v, ptr noundef nonnull %obj) #5
  br i1 %call19, label %return, label %land.lhs.true

sw.bb21:                                          ; preds = %if.end5
  tail call void @abort() #6
  unreachable

sw.default:                                       ; preds = %if.end5
  %call22 = tail call zeroext i1 @visit_is_input(ptr noundef %v) #5
  br i1 %call22, label %if.end25, label %if.else24

if.else24:                                        ; preds = %sw.default
  tail call void @__assert_fail(ptr noundef nonnull @.str.223, ptr noundef nonnull @.str.9, i32 noundef 7680, ptr noundef nonnull @__PRETTY_FUNCTION__.visit_type_BlockdevRefOrNull) #6
  unreachable

if.end25:                                         ; preds = %sw.default
  %tobool26.not = icmp eq ptr %name, null
  %cond = select i1 %tobool26.not, ptr @.str.225, ptr %name
  tail call void (ptr, ptr, i32, ptr, ptr, ...) @error_setg_internal(ptr noundef %errp, ptr noundef nonnull @.str.9, i32 noundef 7682, ptr noundef nonnull @__func__.visit_type_BlockdevRefOrNull, ptr noundef nonnull @.str.224, ptr noundef nonnull %cond, ptr noundef nonnull @.str.384) #5
  %3 = load ptr, ptr %obj, align 8
  tail call void @g_free(ptr noundef %3) #5
  store ptr null, ptr %obj, align 8
  br label %land.lhs.true.sink.split

land.lhs.true.critedge:                           ; preds = %if.end8
  tail call void @visit_end_struct(ptr noundef %v, ptr noundef null) #5
  br label %land.lhs.true.sink.split

land.lhs.true.sink.split:                         ; preds = %sw.bb, %if.end25, %land.lhs.true.critedge
  tail call void @visit_end_alternate(ptr noundef %v, ptr noundef nonnull %obj) #5
  br label %land.lhs.true

land.lhs.true:                                    ; preds = %land.lhs.true.sink.split, %sw.bb13, %sw.bb17, %if.then10
  %call28 = tail call zeroext i1 @visit_is_input(ptr noundef %v) #5
  br i1 %call28, label %if.then29, label %return

if.then29:                                        ; preds = %land.lhs.true
  %4 = load ptr, ptr %obj, align 8
  tail call void @qapi_free_BlockdevRefOrNull(ptr noundef %4) #5
  store ptr null, ptr %obj, align 8
  br label %return

return:                                           ; preds = %sw.bb13, %sw.bb17, %out_obj.thread35, %if.then10, %land.lhs.true, %if.then29, %entry
  %retval.0 = phi i1 [ false, %entry ], [ false, %if.then29 ], [ false, %land.lhs.true ], [ true, %if.then10 ], [ true, %out_obj.thread35 ], [ true, %sw.bb17 ], [ true, %sw.bb13 ]
  ret i1 %retval.0
}